; ModuleID = 'bench/clamav/original/idmef_logging.c.ll'
source_filename = "bench/clamav/original/idmef_logging.c.ll"
target datalayout = "e-m:e-p270:32:32-p271:32:32-p272:64:64-i64:64-i128:128-f80:128-n8:16:32:64-S128"
target triple = "x86_64-pc-linux-gnu"

@.str = private unnamed_addr constant [72 x i8] c"You have to compile with libprelude using ./configure --enable-prelude\0A\00", align 1

; Function Attrs: nounwind uwtable
define void @prelude_logging(ptr nocapture noundef readnone %0, ptr nocapture noundef readnone %1, ptr nocapture noundef readnone %2, i32 noundef %3) local_unnamed_addr #0 {
  %5 = tail call i32 (i32, ptr, ...) @logg(i32 noundef 0, ptr noundef nonnull @.str) #2
  ret void
}

declare i32 @logg(i32 noundef, ptr noundef, ...) local_unnamed_addr #1


!llvm.module.flags = !{!0, !1, !2, !3}

!0 = !{i32 1, !"wchar_size", i32 4}
!1 = !{i32 8, !"PIC Level", i32 2}
!2 = !{i32 7, !"uwtable", i32 2}
!3 = !{i32 7, !"frame-pointer", i32 2}
